target datalayout = "e-m:e-p270:32:32-p271:32:32-p272:64:64-i64:64-i128:128-f80:128-n8:16:32:64-S128"
target triple = "x86_64-pc-linux-gnu"

%struct.ExpandedObjectMethods = type { ptr, ptr }
%struct.TypeCacheEntry = type { i32, i32, i16, i8, i8, i8, i8, i32, i32, i32, i32, i32, i32, i32, i32, i32, i32, i32, i32, i32, i32, %struct.FmgrInfo, %struct.FmgrInfo, %struct.FmgrInfo, %struct.FmgrInfo, ptr, i64, ptr, i32, i32, %struct.FmgrInfo, %struct.FmgrInfo, %struct.FmgrInfo, ptr, i32, i32, ptr, i32, ptr, ptr }
%struct.FmgrInfo = type { ptr, i32, i16, i8, i8, i8, ptr, ptr, ptr }
%struct.TupleDescData = type { i32, i32, i32, i32, ptr, [0 x %struct.CompactAttribute] }
%struct.CompactAttribute = type { i32, i16, i8, i8, i8, i8, i8, i8, i8 }
%struct.ExpandedRecordHeader = type { %struct.ExpandedObjectHeader, i32, i32, i32, i32, i32, ptr, i64, ptr, ptr, i32, i64, i64, i32, i8, ptr, ptr, ptr, ptr, ptr, ptr, %struct.MemoryContextCallback }
%struct.ExpandedObjectHeader = type { i32, ptr, ptr, [10 x i8], [10 x i8] }
%struct.MemoryContextCallback = type { ptr, ptr, ptr }

@.str = private unnamed_addr constant [25 x i8] c"type %s is not composite\00", align 1
@.str.1 = private unnamed_addr constant [17 x i8] c"expandedrecord.c\00", align 1
@.str.2 = private unnamed_addr constant [16 x i8] c"expanded record\00", align 1
@ER_methods = internal constant %struct.ExpandedObjectMethods { ptr @ER_get_flat_size, ptr @ER_flatten_into }, align 8
@__func__.make_expanded_record_from_tupdesc = private unnamed_addr constant [34 x i8] c"make_expanded_record_from_tupdesc\00", align 1
@CurrentMemoryContext = external global ptr, align 8

; Function Attrs: inlinehint nounwind uwtable
define internal ptr @MemoryContextSwitchTo(ptr noundef %0) #5 {
  %2 = alloca ptr, align 8
  %3 = alloca ptr, align 8
  store ptr %0, ptr %2, align 8
  call void @llvm.lifetime.start.p0(i64 8, ptr %3) #9
  %4 = load ptr, ptr @CurrentMemoryContext, align 8
  store ptr %4, ptr %3, align 8
  %5 = load ptr, ptr %2, align 8
  store ptr %5, ptr @CurrentMemoryContext, align 8
  %6 = load ptr, ptr %3, align 8
  call void @llvm.lifetime.end.p0(i64 8, ptr %3) #9
  ret ptr %6
}

; Function Attrs: nounwind uwtable
define dso_local ptr @make_expanded_record_from_tupdesc(ptr noundef %0, ptr noundef %1) #0 {
  %3 = alloca ptr, align 8
  %4 = alloca ptr, align 8
  %5 = alloca ptr, align 8
  %6 = alloca i64, align 8
  %7 = alloca ptr, align 8
  %8 = alloca ptr, align 8
  %9 = alloca ptr, align 8
  %10 = alloca ptr, align 8
  %11 = alloca i32, align 4
  store ptr %0, ptr %3, align 8
  store ptr %1, ptr %4, align 8
  call void @llvm.lifetime.start.p0(i64 8, ptr %5) #9
  call void @llvm.lifetime.start.p0(i64 8, ptr %6) #9
  call void @llvm.lifetime.start.p0(i64 8, ptr %7) #9
  call void @llvm.lifetime.start.p0(i64 8, ptr %8) #9
  call void @llvm.lifetime.start.p0(i64 8, ptr %9) #9
  %12 = load ptr, ptr %3, align 8
  %13 = getelementptr inbounds nuw %struct.TupleDescData, ptr %12, i32 0, i32 1
  %14 = load i32, ptr %13, align 4
  %15 = icmp ne i32 %14, 2249
  br i1 %15, label %16, label %48

16:                                               ; preds = %2
  call void @llvm.lifetime.start.p0(i64 8, ptr %10) #9
  %17 = load ptr, ptr %3, align 8
  %18 = getelementptr inbounds nuw %struct.TupleDescData, ptr %17, i32 0, i32 1
  %19 = load i32, ptr %18, align 4
  %20 = call ptr @lookup_type_cache(i32 noundef %19, i32 noundef 256)
  store ptr %20, ptr %10, align 8
  %21 = load ptr, ptr %10, align 8
  %22 = getelementptr inbounds nuw %struct.TypeCacheEntry, ptr %21, i32 0, i32 25
  %23 = load ptr, ptr %22, align 8
  %24 = icmp eq ptr %23, null
  br i1 %24, label %25, label %41

25:                                               ; preds = %16
  br label %26

26:                                               ; preds = %25
  br i1 true, label %27, label %29

27:                                               ; preds = %26
  %28 = call zeroext i1 @errstart_cold(i32 noundef 21, ptr noundef null) #10
  br i1 %28, label %31, label %38

29:                                               ; preds = %26
  %30 = call zeroext i1 @errstart(i32 noundef 21, ptr noundef null)
  br i1 %30, label %31, label %38

31:                                               ; preds = %29, %27
  %32 = call i32 @errcode(i32 noundef 151027844)
  %33 = load ptr, ptr %3, align 8
  %34 = getelementptr inbounds nuw %struct.TupleDescData, ptr %33, i32 0, i32 1
  %35 = load i32, ptr %34, align 4
  %36 = call ptr @format_type_be(i32 noundef %35)
  %37 = call i32 (ptr, ...) @errmsg(ptr noundef @.str, ptr noundef %36)
  call void @errfinish(ptr noundef @.str.1, i32 noundef 232, ptr noundef @__func__.make_expanded_record_from_tupdesc)
  br label %38

38:                                               ; preds = %31, %29, %27
  unreachable

39:                                               ; No predecessors!
  br label %40

40:                                               ; preds = %39
  br label %41

41:                                               ; preds = %40, %16
  %42 = load ptr, ptr %10, align 8
  %43 = getelementptr inbounds nuw %struct.TypeCacheEntry, ptr %42, i32 0, i32 25
  %44 = load ptr, ptr %43, align 8
  store ptr %44, ptr %3, align 8
  %45 = load ptr, ptr %10, align 8
  %46 = getelementptr inbounds nuw %struct.TypeCacheEntry, ptr %45, i32 0, i32 26
  %47 = load i64, ptr %46, align 8
  store i64 %47, ptr %6, align 8
  call void @llvm.lifetime.end.p0(i64 8, ptr %10) #9
  br label %56

48:                                               ; preds = %2
  %49 = load ptr, ptr %3, align 8
  %50 = getelementptr inbounds nuw %struct.TupleDescData, ptr %49, i32 0, i32 1
  %51 = load i32, ptr %50, align 4
  %52 = load ptr, ptr %3, align 8
  %53 = getelementptr inbounds nuw %struct.TupleDescData, ptr %52, i32 0, i32 2
  %54 = load i32, ptr %53, align 8
  %55 = call i64 @assign_record_type_identifier(i32 noundef %51, i32 noundef %54)
  store i64 %55, ptr %6, align 8
  br label %56

56:                                               ; preds = %48, %41
  br label %57

57:                                               ; preds = %56
  br label %58

58:                                               ; preds = %57
  br label %59

59:                                               ; preds = %58
  store i32 1, ptr %11, align 4
  %60 = load ptr, ptr %4, align 8
  %61 = call ptr @AllocSetContextCreateInternal(ptr noundef %60, ptr noundef @.str.2, i64 noundef 0, i64 noundef 8192, i64 noundef 8388608)
  store ptr %61, ptr %7, align 8
  %62 = load ptr, ptr %7, align 8
  %63 = load ptr, ptr %3, align 8
  %64 = getelementptr inbounds nuw %struct.TupleDescData, ptr %63, i32 0, i32 0
  %65 = load i32, ptr %64, align 8
  %66 = sext i32 %65 to i64
  %67 = mul i64 %66, 9
  %68 = add i64 208, %67
  %69 = call ptr @MemoryContextAlloc(ptr noundef %62, i64 noundef %68)
  store ptr %69, ptr %5, align 8
  %70 = load ptr, ptr %5, align 8
  call void @llvm.memset.p0.i64(ptr align 8 %70, i8 0, i64 208, i1 false)
  %71 = load ptr, ptr %5, align 8
  %72 = getelementptr inbounds nuw %struct.ExpandedRecordHeader, ptr %71, i32 0, i32 0
  %73 = load ptr, ptr %7, align 8
  call void @EOH_init_header(ptr noundef %72, ptr noundef @ER_methods, ptr noundef %73)
  %74 = load ptr, ptr %5, align 8
  %75 = getelementptr inbounds nuw %struct.ExpandedRecordHeader, ptr %74, i32 0, i32 1
  store i32 1384727874, ptr %75, align 8
  %76 = load ptr, ptr %5, align 8
  %77 = getelementptr inbounds nuw i8, ptr %76, i64 208
  store ptr %77, ptr %9, align 8
  %78 = load ptr, ptr %9, align 8
  %79 = load ptr, ptr %5, align 8
  %80 = getelementptr inbounds nuw %struct.ExpandedRecordHeader, ptr %79, i32 0, i32 8
  store ptr %78, ptr %80, align 8
  %81 = load ptr, ptr %9, align 8
  %82 = load ptr, ptr %3, align 8
  %83 = getelementptr inbounds nuw %struct.TupleDescData, ptr %82, i32 0, i32 0
  %84 = load i32, ptr %83, align 8
  %85 = sext i32 %84 to i64
  %86 = mul i64 %85, 8
  %87 = getelementptr inbounds nuw i8, ptr %81, i64 %86
  %88 = load ptr, ptr %5, align 8
  %89 = getelementptr inbounds nuw %struct.ExpandedRecordHeader, ptr %88, i32 0, i32 9
  store ptr %87, ptr %89, align 8
  %90 = load ptr, ptr %3, align 8
  %91 = getelementptr inbounds nuw %struct.TupleDescData, ptr %90, i32 0, i32 0
  %92 = load i32, ptr %91, align 8
  %93 = load ptr, ptr %5, align 8
  %94 = getelementptr inbounds nuw %struct.ExpandedRecordHeader, ptr %93, i32 0, i32 10
  store i32 %92, ptr %94, align 8
  %95 = load ptr, ptr %3, align 8
  %96 = getelementptr inbounds nuw %struct.TupleDescData, ptr %95, i32 0, i32 1
  %97 = load i32, ptr %96, align 4
  %98 = load ptr, ptr %5, align 8
  %99 = getelementptr inbounds nuw %struct.ExpandedRecordHeader, ptr %98, i32 0, i32 4
  store i32 %97, ptr %99, align 4
  %100 = load ptr, ptr %5, align 8
  %101 = getelementptr inbounds nuw %struct.ExpandedRecordHeader, ptr %100, i32 0, i32 3
  store i32 %97, ptr %101, align 8
  %102 = load ptr, ptr %3, align 8
  %103 = getelementptr inbounds nuw %struct.TupleDescData, ptr %102, i32 0, i32 2
  %104 = load i32, ptr %103, align 8
  %105 = load ptr, ptr %5, align 8
  %106 = getelementptr inbounds nuw %struct.ExpandedRecordHeader, ptr %105, i32 0, i32 5
  store i32 %104, ptr %106, align 8
  %107 = load i64, ptr %6, align 8
  %108 = load ptr, ptr %5, align 8
  %109 = getelementptr inbounds nuw %struct.ExpandedRecordHeader, ptr %108, i32 0, i32 7
  store i64 %107, ptr %109, align 8
  %110 = load ptr, ptr %3, align 8
  %111 = getelementptr inbounds nuw %struct.TupleDescData, ptr %110, i32 0, i32 3
  %112 = load i32, ptr %111, align 4
  %113 = icmp sge i32 %112, 0
  br i1 %113, label %114, label %135

114:                                              ; preds = %59
  %115 = load ptr, ptr %5, align 8
  %116 = getelementptr inbounds nuw %struct.ExpandedRecordHeader, ptr %115, i32 0, i32 21
  %117 = getelementptr inbounds nuw %struct.MemoryContextCallback, ptr %116, i32 0, i32 0
  store ptr @ER_mc_callback, ptr %117, align 8
  %118 = load ptr, ptr %5, align 8
  %119 = load ptr, ptr %5, align 8
  %120 = getelementptr inbounds nuw %struct.ExpandedRecordHeader, ptr %119, i32 0, i32 21
  %121 = getelementptr inbounds nuw %struct.MemoryContextCallback, ptr %120, i32 0, i32 1
  store ptr %118, ptr %121, align 8
  %122 = load ptr, ptr %5, align 8
  %123 = getelementptr inbounds nuw %struct.ExpandedRecordHeader, ptr %122, i32 0, i32 0
  %124 = getelementptr inbounds nuw %struct.ExpandedObjectHeader, ptr %123, i32 0, i32 2
  %125 = load ptr, ptr %124, align 8
  %126 = load ptr, ptr %5, align 8
  %127 = getelementptr inbounds nuw %struct.ExpandedRecordHeader, ptr %126, i32 0, i32 21
  call void @MemoryContextRegisterResetCallback(ptr noundef %125, ptr noundef %127)
  %128 = load ptr, ptr %3, align 8
  %129 = load ptr, ptr %5, align 8
  %130 = getelementptr inbounds nuw %struct.ExpandedRecordHeader, ptr %129, i32 0, i32 6
  store ptr %128, ptr %130, align 8
  %131 = load ptr, ptr %3, align 8
  %132 = getelementptr inbounds nuw %struct.TupleDescData, ptr %131, i32 0, i32 3
  %133 = load i32, ptr %132, align 4
  %134 = add i32 %133, 1
  store i32 %134, ptr %132, align 4
  br label %148

135:                                              ; preds = %59
  %136 = load ptr, ptr %7, align 8
  %137 = call ptr @MemoryContextSwitchTo(ptr noundef %136)
  store ptr %137, ptr %8, align 8
  %138 = load ptr, ptr %3, align 8
  %139 = call ptr @CreateTupleDescCopy(ptr noundef %138)
  %140 = load ptr, ptr %5, align 8
  %141 = getelementptr inbounds nuw %struct.ExpandedRecordHeader, ptr %140, i32 0, i32 6
  store ptr %139, ptr %141, align 8
  %142 = load ptr, ptr %5, align 8
  %143 = getelementptr inbounds nuw %struct.ExpandedRecordHeader, ptr %142, i32 0, i32 2
  %144 = load i32, ptr %143, align 4
  %145 = or i32 %144, 32
  store i32 %145, ptr %143, align 4
  %146 = load ptr, ptr %8, align 8
  %147 = call ptr @MemoryContextSwitchTo(ptr noundef %146)
  br label %148

148:                                              ; preds = %135, %114
  %149 = load ptr, ptr %5, align 8
  call void @llvm.lifetime.end.p0(i64 8, ptr %9) #9
  call void @llvm.lifetime.end.p0(i64 8, ptr %8) #9
  call void @llvm.lifetime.end.p0(i64 8, ptr %7) #9
  call void @llvm.lifetime.end.p0(i64 8, ptr %6) #9
  call void @llvm.lifetime.end.p0(i64 8, ptr %5) #9
  ret ptr %149
}