; Function Attrs: nounwind uwtable
define dso_local noundef ptr @make_expanded_record_from_tupdesc(ptr noundef %0, ptr noundef %1) local_unnamed_addr #0 {
  %3 = getelementptr inbounds nuw i8, ptr %0, i64 4
  %4 = load i32, ptr %3, align 4
  %.not = icmp eq i32 %4, 2249
  br i1 %.not, label %19, label %5

5:                                                ; preds = %2
  %6 = tail call ptr @lookup_type_cache(i32 noundef %4, i32 noundef 256) #8
  %7 = getelementptr inbounds nuw i8, ptr %6, i64 264
  %8 = load ptr, ptr %7, align 8
  %9 = icmp eq ptr %8, null
  br i1 %9, label %10, label %16

10:                                               ; preds = %5
  %11 = tail call zeroext i1 @errstart_cold(i32 noundef 21, ptr noundef null) #9
  tail call void @llvm.assume(i1 %11)
  %12 = tail call i32 @errcode(i32 noundef 151027844) #8
  %13 = load i32, ptr %3, align 4
  %14 = tail call ptr @format_type_be(i32 noundef %13) #8
  %15 = tail call i32 (ptr, ...) @errmsg(ptr noundef nonnull @.str, ptr noundef %14) #8
  tail call void @errfinish(ptr noundef nonnull @.str.1, i32 noundef 232, ptr noundef nonnull @__func__.make_expanded_record_from_tupdesc) #8
  unreachable

16:                                               ; preds = %5
  %17 = getelementptr inbounds nuw i8, ptr %6, i64 272
  %18 = load i64, ptr %17, align 8
  br label %23

19:                                               ; preds = %2
  %20 = getelementptr inbounds nuw i8, ptr %0, i64 8
  %21 = load i32, ptr %20, align 8
  %22 = tail call i64 @assign_record_type_identifier(i32 noundef 2249, i32 noundef %21) #8
  br label %23

23:                                               ; preds = %16, %19
  %.044 = phi i64 [ %18, %16 ], [ %22, %19 ]
  %.0 = phi ptr [ %8, %16 ], [ %0, %19 ]
  %24 = tail call ptr @AllocSetContextCreateInternal(ptr noundef %1, ptr noundef nonnull @.str.2, i64 noundef 0, i64 noundef 8192, i64 noundef 8388608) #8
  %25 = load i32, ptr %.0, align 8
  %26 = sext i32 %25 to i64
  %27 = mul nsw i64 %26, 9
  %28 = add nsw i64 %27, 208
  %29 = tail call ptr @MemoryContextAlloc(ptr noundef %24, i64 noundef %28) #8
  tail call void @llvm.memset.p0.i64(ptr noundef nonnull align 8 dereferenceable(208) %29, i8 0, i64 208, i1 false)
  tail call void @EOH_init_header(ptr noundef nonnull %29, ptr noundef nonnull @ER_methods, ptr noundef %24) #8
  %30 = getelementptr inbounds nuw i8, ptr %29, i64 48
  store i32 1384727874, ptr %30, align 8
  %31 = getelementptr inbounds nuw i8, ptr %29, i64 208
  %32 = getelementptr inbounds nuw i8, ptr %29, i64 88
  store ptr %31, ptr %32, align 8
  %33 = load i32, ptr %.0, align 8
  %34 = sext i32 %33 to i64
  %35 = shl nsw i64 %34, 3
  %36 = getelementptr inbounds nuw i8, ptr %31, i64 %35
  %37 = getelementptr inbounds nuw i8, ptr %29, i64 96
  store ptr %36, ptr %37, align 8
  %38 = load i32, ptr %.0, align 8
  %39 = getelementptr inbounds nuw i8, ptr %29, i64 104
  store i32 %38, ptr %39, align 8
  %40 = getelementptr inbounds nuw i8, ptr %.0, i64 4
  %41 = load i32, ptr %40, align 4
  %42 = getelementptr inbounds nuw i8, ptr %29, i64 60
  store i32 %41, ptr %42, align 4
  %43 = getelementptr inbounds nuw i8, ptr %29, i64 56
  store i32 %41, ptr %43, align 8
  %44 = getelementptr inbounds nuw i8, ptr %.0, i64 8
  %45 = load i32, ptr %44, align 8
  %46 = getelementptr inbounds nuw i8, ptr %29, i64 64
  store i32 %45, ptr %46, align 8
  %47 = getelementptr inbounds nuw i8, ptr %29, i64 80
  store i64 %.044, ptr %47, align 8
  %48 = getelementptr inbounds nuw i8, ptr %.0, i64 12
  %49 = load i32, ptr %48, align 4
  %50 = icmp sgt i32 %49, -1
  br i1 %50, label %51, label %59

51:                                               ; preds = %23
  %52 = getelementptr inbounds nuw i8, ptr %29, i64 184
  store ptr @ER_mc_callback, ptr %52, align 8
  %53 = getelementptr inbounds nuw i8, ptr %29, i64 192
  store ptr %29, ptr %53, align 8
  %54 = getelementptr inbounds nuw i8, ptr %29, i64 16
  %55 = load ptr, ptr %54, align 8
  tail call void @MemoryContextRegisterResetCallback(ptr noundef %55, ptr noundef nonnull %52) #8
  %56 = getelementptr inbounds nuw i8, ptr %29, i64 72
  store ptr %.0, ptr %56, align 8
  %57 = load i32, ptr %48, align 4
  %58 = add i32 %57, 1
  store i32 %58, ptr %48, align 4
  br label %66

59:                                               ; preds = %23
  %60 = load ptr, ptr @CurrentMemoryContext, align 8
  store ptr %24, ptr @CurrentMemoryContext, align 8
  %61 = tail call ptr @CreateTupleDescCopy(ptr noundef nonnull %.0) #8
  %62 = getelementptr inbounds nuw i8, ptr %29, i64 72
  store ptr %61, ptr %62, align 8
  %63 = getelementptr inbounds nuw i8, ptr %29, i64 52
  %64 = load i32, ptr %63, align 4
  %65 = or i32 %64, 32
  store i32 %65, ptr %63, align 4
  store ptr %60, ptr @CurrentMemoryContext, align 8
  br label %66

66:                                               ; preds = %59, %51
  ret ptr %29
}